(dp1
S'files'
p2
(dp3
S'decanter_lib_config'
p4
(dp5
S'index'
p6
(dp7
S'html_filename'
p8
S'decanter_lib_config.html'
p9
sS'name'
p10
S'decanter.lib.config'
p11
sS'nums'
p12
ccopy_reg
_reconstructor
p13
(ccoverage.results
Numbers
p14
c__builtin__
object
p15
NtRp16
(dp17
S'n_files'
p18
I1
sS'n_branches'
p19
I0
sS'n_statements'
p20
I33
sS'n_excluded'
p21
I0
sS'n_partial_branches'
p22
I0
sS'n_missing'
p23
I24
sS'n_missing_branches'
p24
I0
sbssS'hash'
p25
S'4\x81\x02\x18Bg\xda\x1f\xe0\x84\xc5|\xf7\xe7uK'
p26
ssS'decanter_app_common'
p27
(dp28
g6
(dp29
g8
S'decanter_app_common.html'
p30
sg10
S'decanter.app.common'
p31
sg12
g13
(g14
g15
NtRp32
(dp33
g18
I1
sg19
I0
sg20
I0
sg21
I0
sg22
I0
sg23
I0
sg24
I0
sbssg25
S'\xb0\xc8pN\xaf>\xa0\xbaz\x144\xe0A9\xb8?'
p34
ssS'decanter_app_plugins'
p35
(dp36
g6
(dp37
g8
S'decanter_app_plugins.html'
p38
sg10
S'decanter.app.plugins'
p39
sg12
g13
(g14
g15
NtRp40
(dp41
g18
I1
sg19
I0
sg20
I0
sg21
I0
sg22
I0
sg23
I0
sg24
I0
sbssg25
S'\xb0\xc8pN\xaf>\xa0\xbaz\x144\xe0A9\xb8?'
p42
ssS'decanter_lib_singleton'
p43
(dp44
g6
(dp45
g8
S'decanter_lib_singleton.html'
p46
sg10
S'decanter.lib.singleton'
p47
sg12
g13
(g14
g15
NtRp48
(dp49
g18
I1
sg19
I0
sg20
I16
sg21
I0
sg22
I0
sg23
I11
sg24
I0
sbssg25
S'\x15q\x10n\x9d\x0eO\x1e/\x8b\x05DX\xf6c\x1e'
p50
ssS'decanter_lib_middleware'
p51
(dp52
g6
(dp53
g8
S'decanter_lib_middleware.html'
p54
sg10
S'decanter.lib.middleware'
p55
sg12
g13
(g14
g15
NtRp56
(dp57
g18
I1
sg19
I0
sg20
I76
sg21
I0
sg22
I0
sg23
I60
sg24
I0
sbssg25
S'\xfc\x999\xf0\x8e\x88\xc8\xee\xc6\xbf?*\x0f\xe2Yk'
p58
ssS'decanter_lib_crypt'
p59
(dp60
g6
(dp61
g8
S'decanter_lib_crypt.html'
p62
sg10
S'decanter.lib.crypt'
p63
sg12
g13
(g14
g15
NtRp64
(dp65
g18
I1
sg19
I0
sg20
I36
sg21
I0
sg22
I0
sg23
I10
sg24
I0
sbssg25
S'\x96\xcaw\xecN?}\x01\x8a$F\x14\x19\xfd\xc8\x99'
p66
ssS'decanter_app_config'
p67
(dp68
g6
(dp69
g8
S'decanter_app_config.html'
p70
sg10
S'decanter.app.config'
p71
sg12
g13
(g14
g15
NtRp72
(dp73
g18
I1
sg19
I0
sg20
I0
sg21
I0
sg22
I0
sg23
I0
sg24
I0
sbssg25
S'\xb0\xc8pN\xaf>\xa0\xbaz\x144\xe0A9\xb8?'
p74
ssS'decanter_decanter'
p75
(dp76
g6
(dp77
g8
S'decanter_decanter.html'
p78
sg10
S'decanter.decanter'
p79
sg12
g13
(g14
g15
NtRp80
(dp81
g18
I1
sg19
I0
sg20
I105
sg21
I0
sg22
I0
sg23
I22
sg24
I0
sbssg25
S'\xea\x90\xb3\xea\x94N*\xb42\x8d\xbd\x8e\xe7\x96\x00z'
p82
ssS'decanter_lib'
p83
(dp84
g6
(dp85
g8
S'decanter_lib.html'
p86
sg10
S'decanter.lib'
p87
sg12
g13
(g14
g15
NtRp88
(dp89
g18
I1
sg19
I0
sg20
I0
sg21
I0
sg22
I0
sg23
I0
sg24
I0
sbssg25
S'\xb0\xc8pN\xaf>\xa0\xbaz\x144\xe0A9\xb8?'
p90
ssS'decanter_app_bundles'
p91
(dp92
g6
(dp93
g8
S'decanter_app_bundles.html'
p94
sg10
S'decanter.app.bundles'
p95
sg12
g13
(g14
g15
NtRp96
(dp97
g18
I1
sg19
I0
sg20
I0
sg21
I0
sg22
I0
sg23
I0
sg24
I0
sbssg25
S'\xb0\xc8pN\xaf>\xa0\xbaz\x144\xe0A9\xb8?'
p98
ssS'decanter_vendor_daemon'
p99
(dp100
g6
(dp101
g8
S'decanter_vendor_daemon.html'
p102
sg10
S'decanter.vendor.daemon'
p103
sg12
g13
(g14
g15
NtRp104
(dp105
g18
I1
sg19
I0
sg20
I81
sg21
I0
sg22
I0
sg23
I64
sg24
I0
sbssg25
S'\xa07\xad\x94f; }\x9f\xf0c\xa6\x13\xfd\x906'
p106
ssS'decanter_app'
p107
(dp108
g6
(dp109
g8
S'decanter_app.html'
p110
sg10
S'decanter.app'
p111
sg12
g13
(g14
g15
NtRp112
(dp113
g18
I1
sg19
I0
sg20
I0
sg21
I0
sg22
I0
sg23
I0
sg24
I0
sbssg25
S'\xb0\xc8pN\xaf>\xa0\xbaz\x144\xe0A9\xb8?'
p114
ssS'decanter_lib_errors'
p115
(dp116
g6
(dp117
g8
S'decanter_lib_errors.html'
p118
sg10
S'decanter.lib.errors'
p119
sg12
g13
(g14
g15
NtRp120
(dp121
g18
I1
sg19
I0
sg20
I12
sg21
I0
sg22
I0
sg23
I6
sg24
I0
sbssg25
S'\r?-tB/Nb\x88\x1d?\x84(:\xe9\x1f'
p122
ssS'decanter_app_bundles_home_controllers'
p123
(dp124
g6
(dp125
g8
S'decanter_app_bundles_home_controllers.html'
p126
sg10
S'decanter.app.bundles.home.controllers'
p127
sg12
g13
(g14
g15
NtRp128
(dp129
g18
I1
sg19
I0
sg20
I0
sg21
I0
sg22
I0
sg23
I0
sg24
I0
sbssg25
S'\xb0\xc8pN\xaf>\xa0\xbaz\x144\xe0A9\xb8?'
p130
ssS'decanter'
p131
(dp132
g6
(dp133
g8
S'decanter.html'
p134
sg10
g131
sg12
g13
(g14
g15
NtRp135
(dp136
g18
I1
sg19
I0
sg20
I1
sg21
I0
sg22
I0
sg23
I0
sg24
I0
sbssg25
S'\x1d)"\xc0\xce\x0e\x85\x17\xda&\xe2\x0c\xb1\x96\xc7\xda'
p137
ssS'decanter_app_bundles_home'
p138
(dp139
g6
(dp140
g8
S'decanter_app_bundles_home.html'
p141
sg10
S'decanter.app.bundles.home'
p142
sg12
g13
(g14
g15
NtRp143
(dp144
g18
I1
sg19
I0
sg20
I0
sg21
I0
sg22
I0
sg23
I0
sg24
I0
sbssg25
S'\xb0\xc8pN\xaf>\xa0\xbaz\x144\xe0A9\xb8?'
p145
ssS'decanter_vendor'
p146
(dp147
g6
(dp148
g8
S'decanter_vendor.html'
p149
sg10
S'decanter.vendor'
p150
sg12
g13
(g14
g15
NtRp151
(dp152
g18
I1
sg19
I0
sg20
I0
sg21
I0
sg22
I0
sg23
I0
sg24
I0
sbssg25
S'\xb0\xc8pN\xaf>\xa0\xbaz\x144\xe0A9\xb8?'
p153
ssS'decanter_lib_logger'
p154
(dp155
g6
(dp156
g8
S'decanter_lib_logger.html'
p157
sg10
S'decanter.lib.logger'
p158
sg12
g13
(g14
g15
NtRp159
(dp160
g18
I1
sg19
I0
sg20
I28
sg21
I0
sg22
I0
sg23
I19
sg24
I0
sbssg25
S'su|Y\x89\x11 \x03\x94\x0b\xcf4\xfc\xe0T\x85'
p161
ssS'decanter_lib_session'
p162
(dp163
g6
(dp164
g8
S'decanter_lib_session.html'
p165
sg10
S'decanter.lib.session'
p166
sg12
g13
(g14
g15
NtRp167
(dp168
g18
I1
sg19
I0
sg20
I150
sg21
I0
sg22
I0
sg23
I104
sg24
I0
sbssg25
S'4\xe88_|\x08&\xa1!\xf0\x0f\x8bFp\x12>'
p169
ssS'decanter_lib_plugin'
p170
(dp171
g6
(dp172
g8
S'decanter_lib_plugin.html'
p173
sg10
S'decanter.lib.plugin'
p174
sg12
g13
(g14
g15
NtRp175
(dp176
g18
I1
sg19
I0
sg20
I227
sg21
I0
sg22
I0
sg23
I174
sg24
I0
sbssg25
S'.\x94\x19*\xfbt\xb2\xf0G/\xe2!\xff,\x84t'
p177
ssS'decanter_lib_store'
p178
(dp179
g6
(dp180
g8
S'decanter_lib_store.html'
p181
sg10
S'decanter.lib.store'
p182
sg12
g13
(g14
g15
NtRp183
(dp184
g18
I1
sg19
I0
sg20
I12
sg21
I0
sg22
I0
sg23
I6
sg24
I0
sbssg25
S'\xec\x17\xf0\xf1\xc5S\x8f\xffS\x17\x8bL\xc7\x19\x8f\xdb'
p185
sssS'version'
p186
S'3.6'
p187
sS'settings'
p188
S'\x0f\xd0JHYv\x01n\xf0\xee\xc3\xb3\xad.\xf1\xae'
p189
sS'format'
p190
I1
s.