(dp1
S'files'
p2
(dp3
S'decanter_lib_config'
p4
(dp5
S'index'
p6
(dp7
S'html_filename'
p8
S'decanter_lib_config.html'
p9
sS'name'
p10
S'decanter.lib.config'
p11
sS'nums'
p12
ccopy_reg
_reconstructor
p13
(ccoverage.results
Numbers
p14
c__builtin__
object
p15
NtRp16
(dp17
S'n_files'
p18
I1
sS'n_branches'
p19
I0
sS'n_statements'
p20
I33
sS'n_excluded'
p21
I0
sS'n_partial_branches'
p22
I0
sS'n_missing'
p23
I24
sS'n_missing_branches'
p24
I0
sbssS'hash'
p25
S'4\x81\x02\x18Bg\xda\x1f\xe0\x84\xc5|\xf7\xe7uK'
p26
ssS'decanter_app_common'
p27
(dp28
g6
(dp29
g8
S'decanter_app_common.html'
p30
sg10
S'decanter.app.common'
p31
sg12
g13
(g14
g15
NtRp32
(dp33
g18
I1
sg19
I0
sg20
I0
sg21
I0
sg22
I0
sg23
I0
sg24
I0
sbssg25
S'\xb0\xc8pN\xaf>\xa0\xbaz\x144\xe0A9\xb8?'
p34
ssS'decanter_lib_plugin'
p35
(dp36
g6
(dp37
g8
S'decanter_lib_plugin.html'
p38
sg10
S'decanter.lib.plugin'
p39
sg12
g13
(g14
g15
NtRp40
(dp41
g18
I1
sg19
I0
sg20
I129
sg21
I0
sg22
I0
sg23
I89
sg24
I0
sbssg25
S'\xf3+\x18\xe4\xd6\x86/j\x8e5sVx\xa5Vq'
p42
ssS'decanter_lib_singleton'
p43
(dp44
g6
(dp45
g8
S'decanter_lib_singleton.html'
p46
sg10
S'decanter.lib.singleton'
p47
sg12
g13
(g14
g15
NtRp48
(dp49
g18
I1
sg19
I0
sg20
I16
sg21
I0
sg22
I0
sg23
I11
sg24
I0
sbssg25
S'\xe2\x11\xc7y3\xc9\x0b\xbe\xfe]\xf2\x01ye\x1a '
p50
ssS'decanter_lib_middleware'
p51
(dp52
g6
(dp53
g8
S'decanter_lib_middleware.html'
p54
sg10
S'decanter.lib.middleware'
p55
sg12
g13
(g14
g15
NtRp56
(dp57
g18
I1
sg19
I0
sg20
I77
sg21
I0
sg22
I0
sg23
I60
sg24
I0
sbssg25
S'\x86\xca\x95\xe7Y\x02\xd9j\x93s\xe4\xc1I\x0c\xb3\xfd'
p58
ssS'decanter_lib_crypt'
p59
(dp60
g6
(dp61
g8
S'decanter_lib_crypt.html'
p62
sg10
S'decanter.lib.crypt'
p63
sg12
g13
(g14
g15
NtRp64
(dp65
g18
I1
sg19
I0
sg20
I36
sg21
I0
sg22
I0
sg23
I10
sg24
I0
sbssg25
S"\xab\xf1\x01+\xbe\xa1ua\xbc\xd2I\xcc\xbf\xbd\xee'"
p66
ssS'decanter_decanter'
p67
(dp68
g6
(dp69
g8
S'decanter_decanter.html'
p70
sg10
S'decanter.decanter'
p71
sg12
g13
(g14
g15
NtRp72
(dp73
g18
I1
sg19
I0
sg20
I93
sg21
I0
sg22
I0
sg23
I14
sg24
I0
sbssg25
S'\x9e\x9aw\x82@0\x19\x0b\xb0\x8f\xc6\xe1\xcd\xce\x0b\xd6'
p74
ssS'decanter_lib'
p75
(dp76
g6
(dp77
g8
S'decanter_lib.html'
p78
sg10
S'decanter.lib'
p79
sg12
g13
(g14
g15
NtRp80
(dp81
g18
I1
sg19
I0
sg20
I0
sg21
I0
sg22
I0
sg23
I0
sg24
I0
sbssg25
S'\xb0\xc8pN\xaf>\xa0\xbaz\x144\xe0A9\xb8?'
p82
ssS'decanter_app_bundles'
p83
(dp84
g6
(dp85
g8
S'decanter_app_bundles.html'
p86
sg10
S'decanter.app.bundles'
p87
sg12
g13
(g14
g15
NtRp88
(dp89
g18
I1
sg19
I0
sg20
I0
sg21
I0
sg22
I0
sg23
I0
sg24
I0
sbssg25
S'\xb0\xc8pN\xaf>\xa0\xbaz\x144\xe0A9\xb8?'
p90
ssS'decanter_vendor_daemon'
p91
(dp92
g6
(dp93
g8
S'decanter_vendor_daemon.html'
p94
sg10
S'decanter.vendor.daemon'
p95
sg12
g13
(g14
g15
NtRp96
(dp97
g18
I1
sg19
I0
sg20
I81
sg21
I0
sg22
I0
sg23
I64
sg24
I0
sbssg25
S'\xa07\xad\x94f; }\x9f\xf0c\xa6\x13\xfd\x906'
p98
ssS'decanter_app'
p99
(dp100
g6
(dp101
g8
S'decanter_app.html'
p102
sg10
S'decanter.app'
p103
sg12
g13
(g14
g15
NtRp104
(dp105
g18
I1
sg19
I0
sg20
I0
sg21
I0
sg22
I0
sg23
I0
sg24
I0
sbssg25
S'\xb0\xc8pN\xaf>\xa0\xbaz\x144\xe0A9\xb8?'
p106
ssS'decanter_lib_errors'
p107
(dp108
g6
(dp109
g8
S'decanter_lib_errors.html'
p110
sg10
S'decanter.lib.errors'
p111
sg12
g13
(g14
g15
NtRp112
(dp113
g18
I1
sg19
I0
sg20
I12
sg21
I0
sg22
I0
sg23
I6
sg24
I0
sbssg25
S'\xd9j\xf9\xddv\xf2\xe1\x10\xd5#\xa3d\x14\x89\xd0\xae'
p114
ssS'decanter_app_bundles_home_controllers'
p115
(dp116
g6
(dp117
g8
S'decanter_app_bundles_home_controllers.html'
p118
sg10
S'decanter.app.bundles.home.controllers'
p119
sg12
g13
(g14
g15
NtRp120
(dp121
g18
I1
sg19
I0
sg20
I0
sg21
I0
sg22
I0
sg23
I0
sg24
I0
sbssg25
S'\xb0\xc8pN\xaf>\xa0\xbaz\x144\xe0A9\xb8?'
p122
ssS'decanter'
p123
(dp124
g6
(dp125
g8
S'decanter.html'
p126
sg10
g123
sg12
g13
(g14
g15
NtRp127
(dp128
g18
I1
sg19
I0
sg20
I1
sg21
I0
sg22
I0
sg23
I0
sg24
I0
sbssg25
S'\x1d)"\xc0\xce\x0e\x85\x17\xda&\xe2\x0c\xb1\x96\xc7\xda'
p129
ssS'decanter_app_bundles_home'
p130
(dp131
g6
(dp132
g8
S'decanter_app_bundles_home.html'
p133
sg10
S'decanter.app.bundles.home'
p134
sg12
g13
(g14
g15
NtRp135
(dp136
g18
I1
sg19
I0
sg20
I0
sg21
I0
sg22
I0
sg23
I0
sg24
I0
sbssg25
S'\xb0\xc8pN\xaf>\xa0\xbaz\x144\xe0A9\xb8?'
p137
ssS'decanter_vendor'
p138
(dp139
g6
(dp140
g8
S'decanter_vendor.html'
p141
sg10
S'decanter.vendor'
p142
sg12
g13
(g14
g15
NtRp143
(dp144
g18
I1
sg19
I0
sg20
I0
sg21
I0
sg22
I0
sg23
I0
sg24
I0
sbssg25
S'\xb0\xc8pN\xaf>\xa0\xbaz\x144\xe0A9\xb8?'
p145
ssS'decanter_lib_logger'
p146
(dp147
g6
(dp148
g8
S'decanter_lib_logger.html'
p149
sg10
S'decanter.lib.logger'
p150
sg12
g13
(g14
g15
NtRp151
(dp152
g18
I1
sg19
I0
sg20
I28
sg21
I0
sg22
I0
sg23
I19
sg24
I0
sbssg25
S'su|Y\x89\x11 \x03\x94\x0b\xcf4\xfc\xe0T\x85'
p153
ssS'decanter_lib_session'
p154
(dp155
g6
(dp156
g8
S'decanter_lib_session.html'
p157
sg10
S'decanter.lib.session'
p158
sg12
g13
(g14
g15
NtRp159
(dp160
g18
I1
sg19
I0
sg20
I150
sg21
I0
sg22
I0
sg23
I104
sg24
I0
sbssg25
S'\xcc`\xc2\xb0\x97\x88\xa2\xec\x0c\xe6][\xef\xed\x89\xa7'
p161
ssS'decanter_config'
p162
(dp163
g6
(dp164
g8
S'decanter_config.html'
p165
sg10
S'decanter.config'
p166
sg12
g13
(g14
g15
NtRp167
(dp168
g18
I1
sg19
I0
sg20
I0
sg21
I0
sg22
I0
sg23
I0
sg24
I0
sbssg25
S'\xb0\xc8pN\xaf>\xa0\xbaz\x144\xe0A9\xb8?'
p169
ssS'decanter_lib_store'
p170
(dp171
g6
(dp172
g8
S'decanter_lib_store.html'
p173
sg10
S'decanter.lib.store'
p174
sg12
g13
(g14
g15
NtRp175
(dp176
g18
I1
sg19
I0
sg20
I12
sg21
I0
sg22
I0
sg23
I6
sg24
I0
sbssg25
S'\x8b\x8b\xc4\xe7\xcbht\x0f\x9bC&\xb7\xe4\xec\xd7\xb4'
p177
sssS'version'
p178
S'3.6'
p179
sS'settings'
p180
S'\x0f\xd0JHYv\x01n\xf0\xee\xc3\xb3\xad.\xf1\xae'
p181
sS'format'
p182
I1
s.